; ModuleID = 'source-C-CXX/60/217.c'
source_filename = "source-C-CXX/60/217.c"
target datalayout = "e-m:e-p270:32:32-p271:32:32-p272:64:64-i64:64-f80:128-n8:16:32:64-S128"
target triple = "x86_64-pc-linux-gnu"

%struct._IO_FILE = type { i32, i8*, i8*, i8*, i8*, i8*, i8*, i8*, i8*, i8*, i8*, i8*, %struct._IO_marker*, %struct._IO_FILE*, i32, i32, i64, i16, i8, [1 x i8], i8*, i64, %struct._IO_codecvt*, %struct._IO_wide_data*, %struct._IO_FILE*, i8*, i64, i32, [20 x i8] }
%struct._IO_marker = type opaque
%struct._IO_codecvt = type opaque
%struct._IO_wide_data = type opaque

@.str = private unnamed_addr constant [3 x i8] c"%d\00", align 1
@.str.1 = private unnamed_addr constant [4 x i8] c"%d\0A\00", align 1
@stdin = external local_unnamed_addr global %struct._IO_FILE*, align 8

; Function Attrs: nofree nounwind sspstrong uwtable
define dso_local i32 @suan(i32 %0, i32* nocapture readnone %1) local_unnamed_addr #0 {
  %3 = add i32 %0, -1
  %4 = icmp ult i32 %3, 2
  br i1 %4, label %10, label %5

5:                                                ; preds = %2
  %6 = tail call i32 @suan(i32 %3, i32* undef)
  %7 = add nsw i32 %0, -2
  %8 = tail call i32 @suan(i32 %7, i32* undef)
  %9 = add nsw i32 %8, %6
  br label %10

10:                                               ; preds = %2, %5
  %11 = phi i32 [ %9, %5 ], [ 1, %2 ]
  ret i32 %11
}

; Function Attrs: nofree nounwind sspstrong uwtable
define dso_local i32 @main() local_unnamed_addr #0 {
  %1 = alloca i32, align 4
  %2 = alloca i32, align 4
  %3 = bitcast i32* %1 to i8*
  call void @llvm.lifetime.start.p0i8(i64 4, i8* nonnull %3) #4
  %4 = bitcast i32* %2 to i8*
  call void @llvm.lifetime.start.p0i8(i64 4, i8* nonnull %4) #4
  %5 = call i32 (i8*, ...) @__isoc99_scanf(i8* getelementptr inbounds ([3 x i8], [3 x i8]* @.str, i64 0, i64 0), i32* nonnull %1)
  %6 = load i32, i32* %1, align 4, !tbaa !5
  %7 = icmp sgt i32 %6, 0
  br i1 %7, label %8, label %18

8:                                                ; preds = %0, %8
  %9 = phi i32 [ %15, %8 ], [ 0, %0 ]
  %10 = call i32 (i8*, ...) @__isoc99_scanf(i8* getelementptr inbounds ([3 x i8], [3 x i8]* @.str, i64 0, i64 0), i32* nonnull %2)
  %11 = call i8* @llvm.stacksave()
  %12 = load i32, i32* %2, align 4, !tbaa !5
  %13 = call i32 @suan(i32 %12, i32* undef)
  %14 = call i32 (i8*, ...) @printf(i8* nonnull dereferenceable(1) getelementptr inbounds ([4 x i8], [4 x i8]* @.str.1, i64 0, i64 0), i32 %13)
  call void @llvm.stackrestore(i8* %11)
  %15 = add nuw nsw i32 %9, 1
  %16 = load i32, i32* %1, align 4, !tbaa !5
  %17 = icmp slt i32 %15, %16
  br i1 %17, label %8, label %18, !llvm.loop !9

18:                                               ; preds = %8, %0
  %19 = load %struct._IO_FILE*, %struct._IO_FILE** @stdin, align 8, !tbaa !11
  %20 = call i32 @getc(%struct._IO_FILE* %19) #4
  %21 = load %struct._IO_FILE*, %struct._IO_FILE** @stdin, align 8, !tbaa !11
  %22 = call i32 @getc(%struct._IO_FILE* %21) #4
  %23 = load %struct._IO_FILE*, %struct._IO_FILE** @stdin, align 8, !tbaa !11
  %24 = call i32 @getc(%struct._IO_FILE* %23) #4
  call void @llvm.lifetime.end.p0i8(i64 4, i8* nonnull %4) #4
  call void @llvm.lifetime.end.p0i8(i64 4, i8* nonnull %3) #4
  ret i32 0
}

; Function Attrs: argmemonly mustprogress nofree nosync nounwind willreturn
declare void @llvm.lifetime.start.p0i8(i64 immarg, i8* nocapture) #1

; Function Attrs: nofree nounwind
declare noundef i32 @__isoc99_scanf(i8* nocapture noundef readonly, ...) local_unnamed_addr #2

; Function Attrs: mustprogress nofree nosync nounwind willreturn
declare i8* @llvm.stacksave() #3

; Function Attrs: nofree nounwind
declare noundef i32 @printf(i8* nocapture noundef readonly, ...) local_unnamed_addr #2

; Function Attrs: argmemonly mustprogress nofree nosync nounwind willreturn
declare void @llvm.lifetime.end.p0i8(i64 immarg, i8* nocapture) #1

; Function Attrs: mustprogress nofree nosync nounwind willreturn
declare void @llvm.stackrestore(i8*) #3

; Function Attrs: nofree nounwind
declare noundef i32 @getc(%struct._IO_FILE* nocapture noundef) local_unnamed_addr #2


!llvm.module.flags = !{!0, !1, !2, !3}
!llvm.ident = !{!4}

!0 = !{i32 1, !"wchar_size", i32 4}
!1 = !{i32 7, !"PIC Level", i32 2}
!2 = !{i32 7, !"PIE Level", i32 2}
!3 = !{i32 7, !"uwtable", i32 1}
!4 = !{!"clang version 13.0.0"}
!5 = !{!6, !6, i64 0}
!6 = !{!"int", !7, i64 0}
!7 = !{!"omnipotent char", !8, i64 0}
!8 = !{!"Simple C/C++ TBAA"}
!9 = distinct !{!9, !10}
!10 = !{!"llvm.loop.mustprogress"}
!11 = !{!12, !12, i64 0}
!12 = !{!"any pointer", !7, i64 0}
